; Function Attrs: null_pointer_is_valid sspstrong uwtable
define zeroext i1 @epan_dissect_packet_contains_field(ptr noundef readonly captures(address_is_null) %0, ptr noundef %1) local_unnamed_addr #6 {
  %.not = icmp eq ptr %0, null
  br i1 %.not, label %16, label %3

3:                                                ; preds = %2
  %4 = getelementptr inbounds nuw i8, ptr %0, i64 16
  %5 = load ptr, ptr %4, align 8
  %.not11 = icmp eq ptr %5, null
  br i1 %.not11, label %16, label %6

6:                                                ; preds = %3
  %7 = tail call i32 @proto_get_id_by_filter_name(ptr noundef %1)
  %8 = icmp slt i32 %7, 0
  br i1 %8, label %16, label %9

9:                                                ; preds = %6
  %10 = load ptr, ptr %4, align 8
  %11 = tail call ptr @proto_find_finfo(ptr noundef %10, i32 noundef %7)
  %12 = getelementptr inbounds nuw i8, ptr %11, i64 8
  %13 = load i32, ptr %12, align 8
  %14 = icmp ne i32 %13, 0
  %15 = tail call ptr @g_ptr_array_free(ptr noundef %11, i32 noundef 1)
  br label %16

16:                                               ; preds = %6, %2, %3, %9
  %.0 = phi i1 [ %14, %9 ], [ false, %3 ], [ false, %2 ], [ false, %6 ]
  ret i1 %.0
}